target datalayout = "e-m:e-p270:32:32-p271:32:32-p272:64:64-i64:64-i128:128-f80:128-n8:16:32:64-S128"
target triple = "x86_64-pc-linux-gnu"

%"class.std::__cxx11::basic_string" = type { %"struct.std::__cxx11::basic_string<char>::_Alloc_hider", i64, %union.anon }
%"struct.std::__cxx11::basic_string<char>::_Alloc_hider" = type { ptr }
%union.anon = type { i64, [8 x i8] }
%"class.std::ios_base" = type { ptr, i64, i64, i32, i32, i32, ptr, %"struct.std::ios_base::_Words", [8 x %"struct.std::ios_base::_Words"], i32, ptr, %"class.std::locale" }
%"struct.std::ios_base::_Words" = type { ptr, i64 }
%"class.std::locale" = type { ptr }
%class.V3Number = type { %class.V3NumberData, ptr, ptr }
%class.V3NumberData = type <{ %union.anon.0, i32, i8, i8, [2 x i8] }>
%union.anon.0 = type { %"class.std::__cxx11::basic_string" }
%"struct.V3NumberData::ValueAndX" = type { i32, i32 }
%class.V3ErrorCode = type { i8 }
%"struct.std::_Vector_base" = type { %"struct.std::_Vector_base<V3NumberData::ValueAndX, std::allocator<V3NumberData::ValueAndX>>::_Vector_impl" }
%"struct.std::_Vector_base<V3NumberData::ValueAndX, std::allocator<V3NumberData::ValueAndX>>::_Vector_impl" = type { %"struct.std::_Vector_base<V3NumberData::ValueAndX, std::allocator<V3NumberData::ValueAndX>>::_Vector_impl_data" }
%"struct.std::_Vector_base<V3NumberData::ValueAndX, std::allocator<V3NumberData::ValueAndX>>::_Vector_impl_data" = type { ptr, ptr, ptr }
%"struct.std::array" = type { [4 x %"struct.V3NumberData::ValueAndX"] }

@.str.95 = private unnamed_addr constant [112 x i8] c"generated/home/dtcxzyw/WorkSpace/Projects/compilers/llvm-opt-benchmark/bench/verilator/verilator/src/V3Number.h\00", align 1
@.str.96 = private unnamed_addr constant [41 x i8] c"`num` member accessed when data type is \00", align 1
@.str.97 = private unnamed_addr constant [14 x i8] c"UNINITIALIZED\00", align 1
@.str.98 = private unnamed_addr constant [6 x i8] c"LOGIC\00", align 1
@.str.99 = private unnamed_addr constant [7 x i8] c"DOUBLE\00", align 1
@.str.100 = private unnamed_addr constant [7 x i8] c"STRING\00", align 1

; Function Attrs: inlinehint mustprogress nounwind uwtable
define linkonce_odr dso_local noundef i32 @_ZStorSt12_Ios_IostateS_(i32 noundef %0, i32 noundef %1) #9 comdat {
  %3 = alloca i32, align 4
  %4 = alloca i32, align 4
  store i32 %0, ptr %3, align 4, !tbaa !590
  store i32 %1, ptr %4, align 4, !tbaa !590
  %5 = load i32, ptr %3, align 4, !tbaa !590
  %6 = load i32, ptr %4, align 4, !tbaa !590
  %7 = or i32 %5, %6
  ret i32 %7
}

; Function Attrs: mustprogress nounwind uwtable
define available_externally noundef i32 @_ZNKSt9basic_iosIcSt11char_traitsIcEE7rdstateEv(ptr noundef nonnull align 8 dereferenceable(264) %0) #7 align 2 {
  %2 = alloca ptr, align 8
  store ptr %0, ptr %2, align 8, !tbaa !559
  %3 = load ptr, ptr %2, align 8
  %4 = getelementptr inbounds nuw %"class.std::ios_base", ptr %3, i32 0, i32 5
  %5 = load i32, ptr %4, align 8, !tbaa !591
  ret i32 %5
}

; Function Attrs: mustprogress nounwind uwtable
define linkonce_odr dso_local noundef ptr @_ZNKSt6vectorIN12V3NumberData9ValueAndXESaIS1_EE11_M_data_ptrIS1_EEPT_S6_(ptr noundef nonnull align 8 dereferenceable(24) %0, ptr noundef %1) #7 comdat align 2 {
  %3 = alloca ptr, align 8
  %4 = alloca ptr, align 8
  store ptr %0, ptr %3, align 8, !tbaa !313
  store ptr %1, ptr %4, align 8, !tbaa !34
  %5 = load ptr, ptr %4, align 8, !tbaa !34
  ret ptr %5
}

; Function Attrs: mustprogress nounwind uwtable
define linkonce_odr dso_local noundef ptr @_ZNSt14__array_traitsIN12V3NumberData9ValueAndXELm4EE6_S_ptrERA4_KS1_(ptr noundef nonnull align 4 dereferenceable(32) %0) #7 comdat align 2 {
  %2 = alloca ptr, align 8
  store ptr %0, ptr %2, align 8, !tbaa !34
  %3 = load ptr, ptr %2, align 8, !tbaa !34
  %4 = getelementptr inbounds [4 x %"struct.V3NumberData::ValueAndX"], ptr %3, i64 0, i64 0
  ret ptr %4
}

; Function Attrs: mustprogress nounwind uwtable
define linkonce_odr dso_local noundef i64 @_ZNSt11char_traitsIcE6lengthEPKc(ptr noundef %0) #7 comdat align 2 {
  %2 = alloca ptr, align 8
  store ptr %0, ptr %2, align 8, !tbaa !28
  %3 = load ptr, ptr %2, align 8, !tbaa !28
  %4 = call i64 @strlen(ptr noundef %3) #3
  ret i64 %4
}

; Function Attrs: mustprogress uwtable
define available_externally void @_ZNSt9basic_iosIcSt11char_traitsIcEE8setstateESt12_Ios_Iostate(ptr noundef nonnull align 8 dereferenceable(264) %0, i32 noundef %1) #4 align 2 {
  %3 = alloca ptr, align 8
  %4 = alloca i32, align 4
  store ptr %0, ptr %3, align 8, !tbaa !559
  store i32 %1, ptr %4, align 4, !tbaa !590
  %5 = load ptr, ptr %3, align 8
  %6 = call noundef i32 @_ZNKSt9basic_iosIcSt11char_traitsIcEE7rdstateEv(ptr noundef nonnull align 8 dereferenceable(264) %5)
  %7 = load i32, ptr %4, align 4, !tbaa !590
  %8 = call noundef i32 @_ZStorSt12_Ios_IostateS_(i32 noundef %6, i32 noundef %7)
  call void @_ZNSt9basic_iosIcSt11char_traitsIcEE5clearESt12_Ios_Iostate(ptr noundef nonnull align 8 dereferenceable(264) %5, i32 noundef %8)
  ret void
}

; Function Attrs: mustprogress nounwind uwtable
define linkonce_odr dso_local noundef ptr @_ZNKSt6vectorIN12V3NumberData9ValueAndXESaIS1_EE4dataEv(ptr noundef nonnull align 8 dereferenceable(24) %0) #7 comdat align 2 {
  %2 = alloca ptr, align 8
  store ptr %0, ptr %2, align 8, !tbaa !313
  %3 = load ptr, ptr %2, align 8
  %4 = getelementptr inbounds nuw %"struct.std::_Vector_base", ptr %3, i32 0, i32 0
  %5 = getelementptr inbounds nuw %"struct.std::_Vector_base<V3NumberData::ValueAndX, std::allocator<V3NumberData::ValueAndX>>::_Vector_impl_data", ptr %4, i32 0, i32 0
  %6 = load ptr, ptr %5, align 8, !tbaa !315
  %7 = call noundef ptr @_ZNKSt6vectorIN12V3NumberData9ValueAndXESaIS1_EE11_M_data_ptrIS1_EEPT_S6_(ptr noundef nonnull align 8 dereferenceable(24) %3, ptr noundef %6) #3
  ret ptr %7
}

; Function Attrs: mustprogress nounwind uwtable
define linkonce_odr dso_local noundef ptr @_ZNKSt5arrayIN12V3NumberData9ValueAndXELm4EE4dataEv(ptr noundef nonnull align 4 dereferenceable(32) %0) #7 comdat align 2 {
  %2 = alloca ptr, align 8
  store ptr %0, ptr %2, align 8, !tbaa !317
  %3 = load ptr, ptr %2, align 8
  %4 = getelementptr inbounds nuw %"struct.std::array", ptr %3, i32 0, i32 0
  %5 = call noundef ptr @_ZNSt14__array_traitsIN12V3NumberData9ValueAndXELm4EE6_S_ptrERA4_KS1_(ptr noundef nonnull align 4 dereferenceable(32) %4) #3
  ret ptr %5
}

; Function Attrs: mustprogress nounwind uwtable
define linkonce_odr dso_local noundef zeroext i1 @_ZNK12V3NumberData14isInlineNumberEv(ptr noundef nonnull align 8 dereferenceable(40) %0) #7 comdat align 2 {
  %2 = alloca ptr, align 8
  store ptr %0, ptr %2, align 8, !tbaa !42
  %3 = load ptr, ptr %2, align 8
  %4 = getelementptr inbounds nuw %class.V3NumberData, ptr %3, i32 0, i32 1
  %5 = load i32, ptr %4, align 8, !tbaa !44
  %6 = icmp sle i32 %5, 128
  br i1 %6, label %7, label %17

7:                                                ; preds = %1
  %8 = getelementptr inbounds nuw %class.V3NumberData, ptr %3, i32 0, i32 2
  %9 = load i8, ptr %8, align 4, !tbaa !45
  %10 = icmp eq i8 %9, 2
  br i1 %10, label %15, label %11

11:                                               ; preds = %7
  %12 = getelementptr inbounds nuw %class.V3NumberData, ptr %3, i32 0, i32 2
  %13 = load i8, ptr %12, align 4, !tbaa !45
  %14 = icmp eq i8 %13, 1
  br label %15

15:                                               ; preds = %11, %7
  %16 = phi i1 [ true, %7 ], [ %14, %11 ]
  br label %17

17:                                               ; preds = %15, %1
  %18 = phi i1 [ false, %1 ], [ %16, %15 ]
  ret i1 %18
}

; Function Attrs: mustprogress uwtable
define linkonce_odr dso_local noundef nonnull align 8 dereferenceable(8) ptr @_ZlsRSoRKN12V3NumberData16V3NumberDataTypeE(ptr noundef nonnull align 8 dereferenceable(8) %0, ptr noundef nonnull align 1 dereferenceable(1) %1) #4 comdat {
  %3 = alloca ptr, align 8
  %4 = alloca ptr, align 8
  %5 = alloca ptr, align 8
  store ptr %0, ptr %4, align 8, !tbaa !22
  store ptr %1, ptr %5, align 8, !tbaa !284
  %6 = load ptr, ptr %5, align 8, !tbaa !284
  %7 = load i8, ptr %6, align 1, !tbaa !334
  switch i8 %7, label %20 [
    i8 0, label %8
    i8 1, label %11
    i8 2, label %14
    i8 3, label %17
  ]

8:                                                ; preds = %2
  %9 = load ptr, ptr %4, align 8, !tbaa !22
  %10 = call noundef nonnull align 8 dereferenceable(8) ptr @_ZStlsISt11char_traitsIcEERSt13basic_ostreamIcT_ES5_PKc(ptr noundef nonnull align 8 dereferenceable(8) %9, ptr noundef @.str.97)
  store ptr %10, ptr %3, align 8
  br label %22

11:                                               ; preds = %2
  %12 = load ptr, ptr %4, align 8, !tbaa !22
  %13 = call noundef nonnull align 8 dereferenceable(8) ptr @_ZStlsISt11char_traitsIcEERSt13basic_ostreamIcT_ES5_PKc(ptr noundef nonnull align 8 dereferenceable(8) %12, ptr noundef @.str.98)
  store ptr %13, ptr %3, align 8
  br label %22

14:                                               ; preds = %2
  %15 = load ptr, ptr %4, align 8, !tbaa !22
  %16 = call noundef nonnull align 8 dereferenceable(8) ptr @_ZStlsISt11char_traitsIcEERSt13basic_ostreamIcT_ES5_PKc(ptr noundef nonnull align 8 dereferenceable(8) %15, ptr noundef @.str.99)
  store ptr %16, ptr %3, align 8
  br label %22

17:                                               ; preds = %2
  %18 = load ptr, ptr %4, align 8, !tbaa !22
  %19 = call noundef nonnull align 8 dereferenceable(8) ptr @_ZStlsISt11char_traitsIcEERSt13basic_ostreamIcT_ES5_PKc(ptr noundef nonnull align 8 dereferenceable(8) %18, ptr noundef @.str.100)
  store ptr %19, ptr %3, align 8
  br label %22

20:                                               ; preds = %2
  %21 = load ptr, ptr %4, align 8, !tbaa !22
  store ptr %21, ptr %3, align 8
  br label %22

22:                                               ; preds = %20, %17, %14, %11, %8
  %23 = load ptr, ptr %3, align 8
  ret ptr %23
}

; Function Attrs: inlinehint mustprogress uwtable
define available_externally noundef nonnull align 8 dereferenceable(8) ptr @_ZStlsISt11char_traitsIcEERSt13basic_ostreamIcT_ES5_PKc(ptr noundef nonnull align 8 dereferenceable(8) %0, ptr noundef %1) #6 {
  %3 = alloca ptr, align 8
  %4 = alloca ptr, align 8
  store ptr %0, ptr %3, align 8, !tbaa !22
  store ptr %1, ptr %4, align 8, !tbaa !28
  %5 = load ptr, ptr %4, align 8, !tbaa !28
  %6 = icmp ne ptr %5, null
  br i1 %6, label %13, label %7

7:                                                ; preds = %2
  %8 = load ptr, ptr %3, align 8, !tbaa !22
  %9 = load ptr, ptr %8, align 8, !tbaa !20
  %10 = getelementptr i8, ptr %9, i64 -24
  %11 = load i64, ptr %10, align 8
  %12 = getelementptr inbounds i8, ptr %8, i64 %11
  call void @_ZNSt9basic_iosIcSt11char_traitsIcEE8setstateESt12_Ios_Iostate(ptr noundef nonnull align 8 dereferenceable(264) %12, i32 noundef 1)
  br label %19

13:                                               ; preds = %2
  %14 = load ptr, ptr %3, align 8, !tbaa !22
  %15 = load ptr, ptr %4, align 8, !tbaa !28
  %16 = load ptr, ptr %4, align 8, !tbaa !28
  %17 = call noundef i64 @_ZNSt11char_traitsIcE6lengthEPKc(ptr noundef %16)
  %18 = call noundef nonnull align 8 dereferenceable(8) ptr @_ZSt16__ostream_insertIcSt11char_traitsIcEERSt13basic_ostreamIT_T0_ES6_PKS3_l(ptr noundef nonnull align 8 dereferenceable(8) %14, ptr noundef %15, i64 noundef %17)
  br label %19

19:                                               ; preds = %13, %7
  %20 = load ptr, ptr %3, align 8, !tbaa !22
  ret ptr %20
}

; Function Attrs: mustprogress nounwind uwtable
define linkonce_odr dso_local void @_ZN11V3ErrorCodeC2ENS_2enE(ptr noundef nonnull align 1 dereferenceable(1) %0, i8 noundef zeroext %1) unnamed_addr #7 comdat align 2 {
  %3 = alloca ptr, align 8
  %4 = alloca i8, align 1
  store ptr %0, ptr %3, align 8, !tbaa !123
  store i8 %1, ptr %4, align 1, !tbaa !125
  %5 = load ptr, ptr %3, align 8
  %6 = getelementptr inbounds nuw %class.V3ErrorCode, ptr %5, i32 0, i32 0
  %7 = load i8, ptr %4, align 1, !tbaa !125
  store i8 %7, ptr %6, align 1, !tbaa !127
  ret void
}

; Function Attrs: mustprogress nounwind uwtable
define linkonce_odr dso_local noundef zeroext i1 @_ZNK12V3NumberData8isNumberEv(ptr noundef nonnull align 8 dereferenceable(40) %0) #7 comdat align 2 {
  %2 = alloca ptr, align 8
  store ptr %0, ptr %2, align 8, !tbaa !42
  %3 = load ptr, ptr %2, align 8
  %4 = getelementptr inbounds nuw %class.V3NumberData, ptr %3, i32 0, i32 2
  %5 = load i8, ptr %4, align 4, !tbaa !45
  %6 = icmp eq i8 %5, 2
  br i1 %6, label %11, label %7

7:                                                ; preds = %1
  %8 = getelementptr inbounds nuw %class.V3NumberData, ptr %3, i32 0, i32 2
  %9 = load i8, ptr %8, align 4, !tbaa !45
  %10 = icmp eq i8 %9, 1
  br label %11

11:                                               ; preds = %7, %1
  %12 = phi i1 [ true, %1 ], [ %10, %7 ]
  ret i1 %12
}

; Function Attrs: mustprogress nounwind uwtable
define linkonce_odr dso_local noundef zeroext i8 @_ZNK12V3NumberData4typeEv(ptr noundef nonnull align 8 dereferenceable(40) %0) #7 comdat align 2 {
  %2 = alloca ptr, align 8
  store ptr %0, ptr %2, align 8, !tbaa !42
  %3 = load ptr, ptr %2, align 8
  %4 = getelementptr inbounds nuw %class.V3NumberData, ptr %3, i32 0, i32 2
  %5 = load i8, ptr %4, align 4, !tbaa !45
  ret i8 %5
}

; Function Attrs: mustprogress uwtable
define linkonce_odr dso_local noundef ptr @_ZNK12V3NumberData3numEv(ptr noundef nonnull align 8 dereferenceable(40) %0) #4 comdat align 2 {
  %2 = alloca ptr, align 8
  %3 = alloca %class.V3ErrorCode, align 1
  store ptr %0, ptr %2, align 8, !tbaa !42
  %4 = load ptr, ptr %2, align 8
  br label %5

5:                                                ; preds = %1
  %6 = call noundef zeroext i1 @_ZNK12V3NumberData8isNumberEv(ptr noundef nonnull align 8 dereferenceable(40) %4)
  %7 = xor i1 %6, true
  %8 = xor i1 %7, true
  %9 = xor i1 %8, true
  %10 = zext i1 %9 to i64
  %11 = call i64 @llvm.expect.i64(i64 %10, i64 0)
  %12 = icmp ne i64 %11, 0
  br i1 %12, label %13, label %21

13:                                               ; preds = %5
  call void @_ZN11V3ErrorCodeC2ENS_2enE(ptr noundef nonnull align 1 dereferenceable(1) %3, i8 noundef zeroext 4)
  %14 = getelementptr inbounds nuw %class.V3ErrorCode, ptr %3, i32 0, i32 0
  %15 = load i8, ptr %14, align 1
  %16 = call noundef nonnull align 8 dereferenceable(112) ptr @_ZN7V3Error19v3errorPrepFileLineB5cxx11E11V3ErrorCodePKci(i8 %15, ptr noundef @.str.95, i32 noundef 198)
  %17 = call noundef nonnull align 8 dereferenceable(112) ptr @_ZN7V3Error10v3errorStrB5cxx11Ev()
  %18 = call noundef nonnull align 8 dereferenceable(8) ptr @_ZStlsISt11char_traitsIcEERSt13basic_ostreamIcT_ES5_PKc(ptr noundef nonnull align 8 dereferenceable(8) %17, ptr noundef @.str.96)
  %19 = getelementptr inbounds nuw %class.V3NumberData, ptr %4, i32 0, i32 2
  %20 = call noundef nonnull align 8 dereferenceable(8) ptr @_ZlsRSoRKN12V3NumberData16V3NumberDataTypeE(ptr noundef nonnull align 8 dereferenceable(8) %18, ptr noundef nonnull align 1 dereferenceable(1) %19)
  call void @_Z15v3errorEndFatalRNSt7__cxx1119basic_ostringstreamIcSt11char_traitsIcESaIcEEE(ptr noundef nonnull align 8 dereferenceable(112) %20) #25
  unreachable

21:                                               ; preds = %5
  br label %22

22:                                               ; preds = %21
  %23 = call noundef zeroext i1 @_ZNK12V3NumberData14isInlineNumberEv(ptr noundef nonnull align 8 dereferenceable(40) %4)
  br i1 %23, label %24, label %27

24:                                               ; preds = %22
  %25 = getelementptr inbounds nuw %class.V3NumberData, ptr %4, i32 0, i32 0
  %26 = call noundef ptr @_ZNKSt5arrayIN12V3NumberData9ValueAndXELm4EE4dataEv(ptr noundef nonnull align 4 dereferenceable(32) %25) #3
  br label %30

27:                                               ; preds = %22
  %28 = getelementptr inbounds nuw %class.V3NumberData, ptr %4, i32 0, i32 0
  %29 = call noundef ptr @_ZNKSt6vectorIN12V3NumberData9ValueAndXESaIS1_EE4dataEv(ptr noundef nonnull align 8 dereferenceable(24) %28) #3
  br label %30

30:                                               ; preds = %27, %24
  %31 = phi ptr [ %26, %24 ], [ %29, %27 ]
  ret ptr %31
}

; Function Attrs: mustprogress uwtable
define linkonce_odr dso_local noundef zeroext i1 @_ZNK8V3Number8isNumberEv(ptr noundef nonnull align 8 dereferenceable(56) %0) #4 comdat align 2 {
  %2 = alloca ptr, align 8
  store ptr %0, ptr %2, align 8, !tbaa !4
  %3 = load ptr, ptr %2, align 8
  %4 = getelementptr inbounds nuw %class.V3Number, ptr %3, i32 0, i32 0
  %5 = call noundef zeroext i8 @_ZNK12V3NumberData4typeEv(ptr noundef nonnull align 8 dereferenceable(40) %4)
  %6 = icmp eq i8 %5, 1
  br i1 %6, label %11, label %7

7:                                                ; preds = %1
  %8 = getelementptr inbounds nuw %class.V3Number, ptr %3, i32 0, i32 0
  %9 = call noundef zeroext i8 @_ZNK12V3NumberData4typeEv(ptr noundef nonnull align 8 dereferenceable(40) %8)
  %10 = icmp eq i8 %9, 2
  br label %11

11:                                               ; preds = %7, %1
  %12 = phi i1 [ true, %1 ], [ %10, %7 ]
  ret i1 %12
}

; Function Attrs: mustprogress nounwind uwtable
define linkonce_odr dso_local noundef i32 @_ZNK12V3NumberData5widthEv(ptr noundef nonnull align 8 dereferenceable(40) %0) #7 comdat align 2 {
  %2 = alloca ptr, align 8
  store ptr %0, ptr %2, align 8, !tbaa !42
  %3 = load ptr, ptr %2, align 8
  %4 = getelementptr inbounds nuw %class.V3NumberData, ptr %3, i32 0, i32 1
  %5 = load i32, ptr %4, align 8, !tbaa !44
  ret i32 %5
}

; Function Attrs: mustprogress uwtable
define linkonce_odr dso_local noundef zeroext i1 @_ZNK8V3Number6bitIs1Ei(ptr noundef nonnull align 8 dereferenceable(56) %0, i32 noundef %1) #4 comdat align 2 {
  %3 = alloca i1, align 1
  %4 = alloca ptr, align 8
  %5 = alloca i32, align 4
  %6 = alloca %"struct.V3NumberData::ValueAndX", align 4
  store ptr %0, ptr %4, align 8, !tbaa !4
  store i32 %1, ptr %5, align 4, !tbaa !33
  %7 = load ptr, ptr %4, align 8
  %8 = call noundef zeroext i1 @_ZNK8V3Number8isNumberEv(ptr noundef nonnull align 8 dereferenceable(56) %7)
  br i1 %8, label %10, label %9

9:                                                ; preds = %2
  store i1 false, ptr %3, align 1
  br label %49

10:                                               ; preds = %2
  %11 = load i32, ptr %5, align 4, !tbaa !33
  %12 = icmp slt i32 %11, 0
  br i1 %12, label %13, label %14

13:                                               ; preds = %10
  store i1 false, ptr %3, align 1
  br label %49

14:                                               ; preds = %10
  %15 = load i32, ptr %5, align 4, !tbaa !33
  %16 = getelementptr inbounds nuw %class.V3Number, ptr %7, i32 0, i32 0
  %17 = call noundef i32 @_ZNK12V3NumberData5widthEv(ptr noundef nonnull align 8 dereferenceable(40) %16)
  %18 = icmp sge i32 %15, %17
  br i1 %18, label %19, label %20

19:                                               ; preds = %14
  store i1 false, ptr %3, align 1
  br label %49

20:                                               ; preds = %14
  call void @llvm.lifetime.start.p0(i64 8, ptr %6) #3
  %21 = getelementptr inbounds nuw %class.V3Number, ptr %7, i32 0, i32 0
  %22 = call noundef ptr @_ZNK12V3NumberData3numEv(ptr noundef nonnull align 8 dereferenceable(40) %21)
  %23 = load i32, ptr %5, align 4, !tbaa !33
  %24 = sdiv i32 %23, 32
  %25 = sext i32 %24 to i64
  %26 = getelementptr inbounds %"struct.V3NumberData::ValueAndX", ptr %22, i64 %25
  call void @llvm.memcpy.p0.p0.i64(ptr align 4 %6, ptr align 4 %26, i64 8, i1 false), !tbaa.struct !50
  %27 = getelementptr inbounds nuw %"struct.V3NumberData::ValueAndX", ptr %6, i32 0, i32 0
  %28 = load i32, ptr %27, align 4, !tbaa !37
  %29 = zext i32 %28 to i64
  %30 = load i32, ptr %5, align 4, !tbaa !33
  %31 = and i32 %30, 31
  %32 = zext i32 %31 to i64
  %33 = shl i64 1, %32
  %34 = and i64 %29, %33
  %35 = icmp ne i64 %34, 0
  br i1 %35, label %36, label %47

36:                                               ; preds = %20
  %37 = getelementptr inbounds nuw %"struct.V3NumberData::ValueAndX", ptr %6, i32 0, i32 1
  %38 = load i32, ptr %37, align 4, !tbaa !49
  %39 = zext i32 %38 to i64
  %40 = load i32, ptr %5, align 4, !tbaa !33
  %41 = and i32 %40, 31
  %42 = zext i32 %41 to i64
  %43 = shl i64 1, %42
  %44 = and i64 %39, %43
  %45 = icmp ne i64 %44, 0
  %46 = xor i1 %45, true
  br label %47

47:                                               ; preds = %36, %20
  %48 = phi i1 [ false, %20 ], [ %46, %36 ]
  store i1 %48, ptr %3, align 1
  call void @llvm.lifetime.end.p0(i64 8, ptr %6) #3
  br label %49

49:                                               ; preds = %47, %19, %13, %9
  %50 = load i1, ptr %3, align 1
  ret i1 %50
}

; Function Attrs: mustprogress nounwind uwtable
define linkonce_odr dso_local noundef i32 @_ZNK8V3Number5widthEv(ptr noundef nonnull align 8 dereferenceable(56) %0) #7 comdat align 2 {
  %2 = alloca ptr, align 8
  store ptr %0, ptr %2, align 8, !tbaa !4
  %3 = load ptr, ptr %2, align 8
  %4 = getelementptr inbounds nuw %class.V3Number, ptr %3, i32 0, i32 0
  %5 = call noundef i32 @_ZNK12V3NumberData5widthEv(ptr noundef nonnull align 8 dereferenceable(40) %4)
  ret i32 %5
}

; Function Attrs: mustprogress uwtable
define dso_local noundef i32 @_ZNK8V3Number9countOnesEv(ptr noundef nonnull align 8 dereferenceable(56) %0) #4 align 2 {
  %2 = alloca ptr, align 8
  %3 = alloca i32, align 4
  %4 = alloca i32, align 4
  store ptr %0, ptr %2, align 8, !tbaa !4
  %5 = load ptr, ptr %2, align 8
  call void @llvm.lifetime.start.p0(i64 4, ptr %3) #3
  store i32 0, ptr %3, align 4, !tbaa !33
  call void @llvm.lifetime.start.p0(i64 4, ptr %4) #3
  store i32 0, ptr %4, align 4, !tbaa !33
  br label %6

6:                                                ; preds = %18, %1
  %7 = load i32, ptr %4, align 4, !tbaa !33
  %8 = call noundef i32 @_ZNK8V3Number5widthEv(ptr noundef nonnull align 8 dereferenceable(56) %5)
  %9 = icmp slt i32 %7, %8
  br i1 %9, label %11, label %10

10:                                               ; preds = %6
  call void @llvm.lifetime.end.p0(i64 4, ptr %4) #3
  br label %21

11:                                               ; preds = %6
  %12 = load i32, ptr %4, align 4, !tbaa !33
  %13 = call noundef zeroext i1 @_ZNK8V3Number6bitIs1Ei(ptr noundef nonnull align 8 dereferenceable(56) %5, i32 noundef %12)
  br i1 %13, label %14, label %17

14:                                               ; preds = %11
  %15 = load i32, ptr %3, align 4, !tbaa !33
  %16 = add nsw i32 %15, 1
  store i32 %16, ptr %3, align 4, !tbaa !33
  br label %17

17:                                               ; preds = %14, %11
  br label %18

18:                                               ; preds = %17
  %19 = load i32, ptr %4, align 4, !tbaa !33
  %20 = add nsw i32 %19, 1
  store i32 %20, ptr %4, align 4, !tbaa !33
  br label %6, !llvm.loop !232

21:                                               ; preds = %10
  %22 = load i32, ptr %3, align 4, !tbaa !33
  call void @llvm.lifetime.end.p0(i64 4, ptr %3) #3
  ret i32 %22
}