; Function Attrs: mustprogress nofree norecurse nosync nounwind willreturn memory(read, inaccessiblemem: none) uwtable
define dso_local noundef i32 @_ZNK8V3Number9countOnesEv(ptr noundef nonnull readonly align 8 captures(none) dereferenceable(56) %0) local_unnamed_addr #11 align 2 {
  %2 = getelementptr inbounds nuw i8, ptr %0, i64 32
  %3 = load i32, ptr %2, align 8, !tbaa !39
  %4 = icmp sgt i32 %3, 0
  br i1 %4, label %.lr.ph, label %._crit_edge

.lr.ph:                                           ; preds = %1
  %5 = getelementptr inbounds nuw i8, ptr %0, i64 36
  %6 = load i8, ptr %5, align 4, !tbaa !40
  %7 = add i8 %6, -3
  %spec.select.i.i = icmp ult i8 %7, -2
  %8 = icmp samesign ult i32 %3, 129
  %9 = load ptr, ptr %0, align 8
  %spec.select.i10.i = select i1 %8, ptr %0, ptr %9
  br i1 %spec.select.i.i, label %._crit_edge, label %_ZNK12V3NumberData3numEv.exit.i

._crit_edge:                                      ; preds = %_ZNK8V3Number6bitIs1Ei.exit.thread, %.lr.ph, %1
  %.05.lcssa = phi i32 [ 0, %1 ], [ 0, %.lr.ph ], [ %21, %_ZNK8V3Number6bitIs1Ei.exit.thread ]
  ret i32 %.05.lcssa

_ZNK12V3NumberData3numEv.exit.i:                  ; preds = %.lr.ph, %_ZNK8V3Number6bitIs1Ei.exit.thread
  %.09 = phi i32 [ %22, %_ZNK8V3Number6bitIs1Ei.exit.thread ], [ 0, %.lr.ph ]
  %.058 = phi i32 [ %21, %_ZNK8V3Number6bitIs1Ei.exit.thread ], [ 0, %.lr.ph ]
  %10 = lshr i32 %.09, 5
  %11 = zext nneg i32 %10 to i64
  %12 = getelementptr inbounds nuw %"struct.V3NumberData::ValueAndX", ptr %spec.select.i10.i, i64 %11
  %.sroa.0.0.copyload.i = load i32, ptr %12, align 4, !tbaa !62
  %13 = zext i32 %.sroa.0.0.copyload.i to i64
  %14 = and i32 %.09, 31
  %15 = zext nneg i32 %14 to i64
  %16 = shl nuw nsw i64 1, %15
  %17 = and i64 %16, %13
  %.not7.i = icmp eq i64 %17, 0
  br i1 %.not7.i, label %_ZNK8V3Number6bitIs1Ei.exit.thread, label %_ZNK8V3Number6bitIs1Ei.exit

_ZNK8V3Number6bitIs1Ei.exit:                      ; preds = %_ZNK12V3NumberData3numEv.exit.i
  %.sroa.4.0..sroa_idx.i = getelementptr inbounds nuw i8, ptr %12, i64 4
  %.sroa.4.0.copyload.i = load i32, ptr %.sroa.4.0..sroa_idx.i, align 4, !tbaa !62
  %18 = zext i32 %.sroa.4.0.copyload.i to i64
  %19 = and i64 %16, %18
  %.fr = freeze i64 %19
  %.not8.i = icmp eq i64 %.fr, 0
  %20 = zext i1 %.not8.i to i32
  %spec.select = add nsw i32 %.058, %20
  br label %_ZNK8V3Number6bitIs1Ei.exit.thread

_ZNK8V3Number6bitIs1Ei.exit.thread:               ; preds = %_ZNK8V3Number6bitIs1Ei.exit, %_ZNK12V3NumberData3numEv.exit.i
  %21 = phi i32 [ %.058, %_ZNK12V3NumberData3numEv.exit.i ], [ %spec.select, %_ZNK8V3Number6bitIs1Ei.exit ]
  %22 = add nuw nsw i32 %.09, 1
  %exitcond.not = icmp eq i32 %22, %3
  br i1 %exitcond.not, label %._crit_edge, label %_ZNK12V3NumberData3numEv.exit.i, !llvm.loop !284
}